target datalayout = "e-m:e-p270:32:32-p271:32:32-p272:64:64-i64:64-i128:128-f80:128-n8:16:32:64-S128"
target triple = "x86_64-pc-linux-gnu"

%struct._zval_struct = type { %union._zend_value, %union.anon, %union.anon.2 }
%union._zend_value = type { i64 }
%union.anon = type { i32 }
%union.anon.2 = type { i32 }
%struct._zend_array = type { %struct._zend_refcounted_h, %union.anon.4, i32, %union.anon.6, i32, i32, i32, i32, i64, ptr }
%struct._zend_refcounted_h = type { i32, %union.anon.3 }
%union.anon.3 = type { i32 }
%union.anon.4 = type { i32 }
%union.anon.6 = type { ptr }
%struct._zend_reference = type { %struct._zend_refcounted_h, %struct._zval_struct, %union.zend_property_info_source_list }
%union.zend_property_info_source_list = type { ptr }
%struct.fd_set = type { [16 x i64] }

@.str.6 = private unnamed_addr constant [7 x i8] c"stream\00", align 1

; Function Attrs: nounwind uwtable
define internal i32 @stream_array_to_fd_set(ptr noundef %0, ptr noundef %1, ptr noundef %2) #0 {
  %4 = alloca ptr, align 8
  %5 = alloca ptr, align 8
  %6 = alloca ptr, align 8
  %7 = alloca i32, align 4
  %8 = alloca ptr, align 8
  %9 = alloca ptr, align 8
  %10 = alloca ptr, align 8
  %11 = alloca ptr, align 8
  %12 = alloca ptr, align 8
  %13 = alloca i32, align 4
  %14 = alloca ptr, align 8
  %15 = alloca i32, align 4
  %16 = alloca i64, align 8
  %17 = alloca ptr, align 8
  %18 = alloca i32, align 4
  store ptr %0, ptr %8, align 8
  store ptr %1, ptr %9, align 8
  store ptr %2, ptr %10, align 8
  store i32 0, ptr %13, align 4
  %19 = load ptr, ptr %8, align 8
  store ptr %19, ptr %4, align 8
  %20 = load ptr, ptr %4, align 8
  %21 = getelementptr inbounds %struct._zval_struct, ptr %20, i32 0, i32 1
  %22 = load i8, ptr %21, align 8
  %23 = zext i8 %22 to i32
  %24 = icmp ne i32 %23, 7
  br i1 %24, label %25, label %26

25:                                               ; preds = %3
  store i32 0, ptr %7, align 4
  br label %137

26:                                               ; preds = %3
  br label %27

27:                                               ; preds = %26
  %28 = load ptr, ptr %8, align 8
  %29 = getelementptr inbounds %struct._zval_struct, ptr %28, i32 0, i32 0
  %30 = load ptr, ptr %29, align 8
  store ptr %30, ptr %14, align 8
  %31 = load ptr, ptr %14, align 8
  %32 = getelementptr inbounds %struct._zend_array, ptr %31, i32 0, i32 4
  %33 = load i32, ptr %32, align 8
  store i32 %33, ptr %15, align 4
  %34 = load ptr, ptr %14, align 8
  %35 = getelementptr inbounds %struct._zend_array, ptr %34, i32 0, i32 1
  %36 = load i32, ptr %35, align 8
  %37 = xor i32 %36, -1
  %38 = and i32 %37, 4
  %39 = zext i32 %38 to i64
  %40 = mul i64 %39, 4
  %41 = add i64 16, %40
  store i64 %41, ptr %16, align 8
  %42 = load ptr, ptr %14, align 8
  %43 = getelementptr inbounds %struct._zend_array, ptr %42, i32 0, i32 3
  %44 = load ptr, ptr %43, align 8
  store ptr %44, ptr %17, align 8
  br label %45

45:                                               ; preds = %126, %27
  %46 = load i32, ptr %15, align 4
  %47 = icmp ugt i32 %46, 0
  br i1 %47, label %48, label %132

48:                                               ; preds = %45
  %49 = load ptr, ptr %17, align 8
  store ptr %49, ptr %5, align 8
  %50 = load ptr, ptr %5, align 8
  %51 = getelementptr inbounds %struct._zval_struct, ptr %50, i32 0, i32 1
  %52 = load i8, ptr %51, align 8
  %53 = zext i8 %52 to i32
  %54 = icmp eq i32 %53, 0
  %55 = xor i1 %54, true
  %56 = xor i1 %55, true
  %57 = zext i1 %56 to i32
  %58 = sext i32 %57 to i64
  %59 = icmp ne i64 %58, 0
  br i1 %59, label %60, label %61

60:                                               ; preds = %48
  br label %126

61:                                               ; preds = %48
  %62 = load ptr, ptr %17, align 8
  store ptr %62, ptr %11, align 8
  br label %63

63:                                               ; preds = %61
  %64 = load ptr, ptr %11, align 8
  store ptr %64, ptr %6, align 8
  %65 = load ptr, ptr %6, align 8
  %66 = getelementptr inbounds %struct._zval_struct, ptr %65, i32 0, i32 1
  %67 = load i8, ptr %66, align 8
  %68 = zext i8 %67 to i32
  %69 = icmp eq i32 %68, 10
  %70 = xor i1 %69, true
  %71 = xor i1 %70, true
  %72 = zext i1 %71 to i32
  %73 = sext i32 %72 to i64
  %74 = icmp ne i64 %73, 0
  br i1 %74, label %75, label %80

75:                                               ; preds = %63
  %76 = load ptr, ptr %11, align 8
  %77 = getelementptr inbounds %struct._zval_struct, ptr %76, i32 0, i32 0
  %78 = load ptr, ptr %77, align 8
  %79 = getelementptr inbounds %struct._zend_reference, ptr %78, i32 0, i32 1
  store ptr %79, ptr %11, align 8
  br label %80

80:                                               ; preds = %75, %63
  br label %81

81:                                               ; preds = %80
  %82 = load ptr, ptr %11, align 8
  %83 = call i32 @php_file_le_stream()
  %84 = call i32 @php_file_le_pstream()
  %85 = call ptr @zend_fetch_resource2_ex(ptr noundef %82, ptr noundef @.str.6, i32 noundef %83, i32 noundef %84)
  store ptr %85, ptr %12, align 8
  %86 = load ptr, ptr %12, align 8
  %87 = icmp eq ptr %86, null
  br i1 %87, label %88, label %89

88:                                               ; preds = %81
  br label %126

89:                                               ; preds = %81
  %90 = load ptr, ptr %12, align 8
  %91 = call i32 @_php_stream_cast(ptr noundef %90, i32 noundef 536870915, ptr noundef %18, i32 noundef 1)
  %92 = icmp eq i32 0, %91
  br i1 %92, label %93, label %125

93:                                               ; preds = %89
  %94 = load i32, ptr %18, align 4
  %95 = icmp ne i32 %94, -1
  br i1 %95, label %96, label %125

96:                                               ; preds = %93
  br label %97

97:                                               ; preds = %96
  %98 = load i32, ptr %18, align 4
  %99 = icmp slt i32 %98, 1024
  br i1 %99, label %100, label %113

100:                                              ; preds = %97
  %101 = load i32, ptr %18, align 4
  %102 = srem i32 %101, 64
  %103 = zext i32 %102 to i64
  %104 = shl i64 1, %103
  %105 = load ptr, ptr %9, align 8
  %106 = getelementptr inbounds %struct.fd_set, ptr %105, i32 0, i32 0
  %107 = load i32, ptr %18, align 4
  %108 = sdiv i32 %107, 64
  %109 = sext i32 %108 to i64
  %110 = getelementptr inbounds [16 x i64], ptr %106, i64 0, i64 %109
  %111 = load i64, ptr %110, align 8
  %112 = or i64 %111, %104
  store i64 %112, ptr %110, align 8
  br label %113

113:                                              ; preds = %100, %97
  br label %114

114:                                              ; preds = %113
  %115 = load i32, ptr %18, align 4
  %116 = load ptr, ptr %10, align 8
  %117 = load i32, ptr %116, align 4
  %118 = icmp sgt i32 %115, %117
  br i1 %118, label %119, label %122

119:                                              ; preds = %114
  %120 = load i32, ptr %18, align 4
  %121 = load ptr, ptr %10, align 8
  store i32 %120, ptr %121, align 4
  br label %122

122:                                              ; preds = %119, %114
  %123 = load i32, ptr %13, align 4
  %124 = add nsw i32 %123, 1
  store i32 %124, ptr %13, align 4
  br label %125

125:                                              ; preds = %122, %93, %89
  br label %126

126:                                              ; preds = %125, %88, %60
  %127 = load ptr, ptr %17, align 8
  %128 = load i64, ptr %16, align 8
  %129 = getelementptr inbounds i8, ptr %127, i64 %128
  store ptr %129, ptr %17, align 8
  %130 = load i32, ptr %15, align 4
  %131 = add i32 %130, -1
  store i32 %131, ptr %15, align 4
  br label %45

132:                                              ; preds = %45
  br label %133

133:                                              ; preds = %132
  %134 = load i32, ptr %13, align 4
  %135 = icmp ne i32 %134, 0
  %136 = select i1 %135, i32 1, i32 0
  store i32 %136, ptr %7, align 4
  br label %137

137:                                              ; preds = %133, %25
  %138 = load i32, ptr %7, align 4
  ret i32 %138
}