; Function Attrs: nounwind uwtable
define internal fastcc i32 @stream_array_to_fd_set(ptr nocapture noundef readonly %0, ptr nocapture noundef %1, ptr nocapture noundef %2) unnamed_addr #0 {
  %4 = alloca i32, align 4
  %5 = getelementptr inbounds i8, ptr %0, i64 8
  %6 = load i8, ptr %5, align 8
  %.not = icmp eq i8 %6, 7
  br i1 %.not, label %7, label %._crit_edge

7:                                                ; preds = %3
  %8 = load ptr, ptr %0, align 8
  %9 = getelementptr inbounds i8, ptr %8, i64 24
  %10 = load i32, ptr %9, align 8
  %11 = getelementptr inbounds i8, ptr %8, i64 8
  %12 = load i32, ptr %11, align 8
  %13 = shl i32 %12, 2
  %14 = and i32 %13, 16
  %15 = xor i32 %14, 16
  %narrow = add nuw nsw i32 %15, 16
  %16 = zext nneg i32 %narrow to i64
  %.not3335 = icmp eq i32 %10, 0
  br i1 %.not3335, label %._crit_edge, label %.lr.ph.preheader

.lr.ph.preheader:                                 ; preds = %7
  %17 = getelementptr inbounds i8, ptr %8, i64 16
  %18 = load ptr, ptr %17, align 8
  br label %.lr.ph

.lr.ph:                                           ; preds = %.lr.ph.preheader, %51
  %.038 = phi ptr [ %52, %51 ], [ %18, %.lr.ph.preheader ]
  %.02637 = phi i32 [ %53, %51 ], [ %10, %.lr.ph.preheader ]
  %.02836 = phi i32 [ %.1, %51 ], [ 0, %.lr.ph.preheader ]
  %19 = getelementptr inbounds i8, ptr %.038, i64 8
  %20 = load i8, ptr %19, align 8
  switch i8 %20, label %24 [
    i8 0, label %51
    i8 10, label %21
  ]

21:                                               ; preds = %.lr.ph
  %22 = load ptr, ptr %.038, align 8
  %23 = getelementptr inbounds i8, ptr %22, i64 8
  br label %24

24:                                               ; preds = %.lr.ph, %21
  %.027 = phi ptr [ %23, %21 ], [ %.038, %.lr.ph ]
  %25 = call i32 @php_file_le_stream() #10
  %26 = call i32 @php_file_le_pstream() #10
  %27 = call ptr @zend_fetch_resource2_ex(ptr noundef nonnull %.027, ptr noundef nonnull @.str.6, i32 noundef %25, i32 noundef %26) #10
  %28 = icmp eq ptr %27, null
  br i1 %28, label %51, label %29

29:                                               ; preds = %24
  %30 = call i32 @_php_stream_cast(ptr noundef nonnull %27, i32 noundef 536870915, ptr noundef nonnull %4, i32 noundef 1) #10
  %31 = icmp eq i32 %30, 0
  %32 = load i32, ptr %4, align 4
  %33 = icmp ne i32 %32, -1
  %or.cond = select i1 %31, i1 %33, i1 false
  br i1 %or.cond, label %34, label %51

34:                                               ; preds = %29
  %35 = icmp slt i32 %32, 1024
  br i1 %35, label %36, label %45

36:                                               ; preds = %34
  %37 = srem i32 %32, 64
  %38 = zext nneg i32 %37 to i64
  %39 = shl nuw i64 1, %38
  %40 = sdiv i32 %32, 64
  %41 = sext i32 %40 to i64
  %42 = getelementptr inbounds [16 x i64], ptr %1, i64 0, i64 %41
  %43 = load i64, ptr %42, align 8
  %44 = or i64 %43, %39
  store i64 %44, ptr %42, align 8
  br label %45

45:                                               ; preds = %34, %36
  %46 = load i32, ptr %2, align 4
  %47 = icmp sgt i32 %32, %46
  br i1 %47, label %48, label %49

48:                                               ; preds = %45
  store i32 %32, ptr %2, align 4
  br label %49

49:                                               ; preds = %48, %45
  %50 = add nsw i32 %.02836, 1
  br label %51

51:                                               ; preds = %.lr.ph, %29, %49, %24
  %.1 = phi i32 [ %.02836, %.lr.ph ], [ %.02836, %24 ], [ %50, %49 ], [ %.02836, %29 ]
  %52 = getelementptr inbounds i8, ptr %.038, i64 %16
  %53 = add i32 %.02637, -1
  %.not33 = icmp eq i32 %53, 0
  br i1 %.not33, label %._crit_edge.loopexit, label %.lr.ph

._crit_edge.loopexit:                             ; preds = %51
  %54 = icmp ne i32 %.1, 0
  %55 = zext i1 %54 to i32
  br label %._crit_edge

._crit_edge:                                      ; preds = %7, %._crit_edge.loopexit, %3
  %.025 = phi i32 [ 0, %3 ], [ 0, %7 ], [ %55, %._crit_edge.loopexit ]
  ret i32 %.025
}